target datalayout = "e-m:e-p270:32:32-p271:32:32-p272:64:64-i64:64-i128:128-f80:128-n8:16:32:64-S128"
target triple = "x86_64-pc-linux-gnu"

%"class.cv::dnn_objdetect::InferBbox" = type { %"class.std::vector", %"class.cv::Mat", %"class.cv::Mat", %"class.cv::Mat", i32, i32, i32, i32, %"class.std::vector.0", %"class.std::vector.5", %"class.std::vector.5", %"class.std::vector.10", i32, i32, i64, double, double, i64, double }
%"class.std::vector" = type { %"struct.std::_Vector_base" }
%"struct.std::_Vector_base" = type { %"struct.std::_Vector_base<cv::dnn_objdetect::object, std::allocator<cv::dnn_objdetect::object>>::_Vector_impl" }
%"struct.std::_Vector_base<cv::dnn_objdetect::object, std::allocator<cv::dnn_objdetect::object>>::_Vector_impl" = type { %"struct.std::_Vector_base<cv::dnn_objdetect::object, std::allocator<cv::dnn_objdetect::object>>::_Vector_impl_data" }
%"struct.std::_Vector_base<cv::dnn_objdetect::object, std::allocator<cv::dnn_objdetect::object>>::_Vector_impl_data" = type { ptr, ptr, ptr }
%"class.cv::Mat" = type { i32, i32, i32, i32, ptr, ptr, ptr, ptr, ptr, ptr, %"struct.cv::MatSize", %"struct.cv::MatStep" }
%"struct.cv::MatSize" = type { ptr }
%"struct.cv::MatStep" = type { ptr, [2 x i64] }
%"class.std::vector.0" = type { %"struct.std::_Vector_base.1" }
%"struct.std::_Vector_base.1" = type { %"struct.std::_Vector_base<std::vector<double>, std::allocator<std::vector<double>>>::_Vector_impl" }
%"struct.std::_Vector_base<std::vector<double>, std::allocator<std::vector<double>>>::_Vector_impl" = type { %"struct.std::_Vector_base<std::vector<double>, std::allocator<std::vector<double>>>::_Vector_impl_data" }
%"struct.std::_Vector_base<std::vector<double>, std::allocator<std::vector<double>>>::_Vector_impl_data" = type { ptr, ptr, ptr }
%"class.std::vector.5" = type { %"struct.std::_Vector_base.6" }
%"struct.std::_Vector_base.6" = type { %"struct.std::_Vector_base<std::pair<double, double>, std::allocator<std::pair<double, double>>>::_Vector_impl" }
%"struct.std::_Vector_base<std::pair<double, double>, std::allocator<std::pair<double, double>>>::_Vector_impl" = type { %"struct.std::_Vector_base<std::pair<double, double>, std::allocator<std::pair<double, double>>>::_Vector_impl_data" }
%"struct.std::_Vector_base<std::pair<double, double>, std::allocator<std::pair<double, double>>>::_Vector_impl_data" = type { ptr, ptr, ptr }
%"class.std::vector.10" = type { %"struct.std::_Vector_base.11" }
%"struct.std::_Vector_base.11" = type { %"struct.std::_Vector_base<std::__cxx11::basic_string<char>, std::allocator<std::__cxx11::basic_string<char>>>::_Vector_impl" }
%"struct.std::_Vector_base<std::__cxx11::basic_string<char>, std::allocator<std::__cxx11::basic_string<char>>>::_Vector_impl" = type { %"struct.std::_Vector_base<std::__cxx11::basic_string<char>, std::allocator<std::__cxx11::basic_string<char>>>::_Vector_impl_data" }
%"struct.std::_Vector_base<std::__cxx11::basic_string<char>, std::allocator<std::__cxx11::basic_string<char>>>::_Vector_impl_data" = type { ptr, ptr, ptr }
%"class.std::vector.15" = type { %"struct.std::_Vector_base.16" }
%"struct.std::_Vector_base.16" = type { %"struct.std::_Vector_base<double, std::allocator<double>>::_Vector_impl" }
%"struct.std::_Vector_base<double, std::allocator<double>>::_Vector_impl" = type { %"struct.std::_Vector_base<double, std::allocator<double>>::_Vector_impl_data" }
%"struct.std::_Vector_base<double, std::allocator<double>>::_Vector_impl_data" = type { ptr, ptr, ptr }

; Function Attrs: inlinehint mustprogress nounwind uwtable
define linkonce_odr hidden noundef ptr @_ZN2cv3Mat3ptrEiii(ptr noundef nonnull align 8 dereferenceable(96) %0, i32 noundef %1, i32 noundef %2, i32 noundef %3) #10 comdat align 2 {
  %5 = alloca ptr, align 8
  %6 = alloca i32, align 4
  %7 = alloca i32, align 4
  %8 = alloca i32, align 4
  store ptr %0, ptr %5, align 8, !tbaa !8
  store i32 %1, ptr %6, align 4, !tbaa !95
  store i32 %2, ptr %7, align 4, !tbaa !95
  store i32 %3, ptr %8, align 4, !tbaa !95
  %9 = load ptr, ptr %5, align 8
  %10 = getelementptr inbounds nuw %"class.cv::Mat", ptr %9, i32 0, i32 4
  %11 = load ptr, ptr %10, align 8, !tbaa !137
  %12 = load i32, ptr %6, align 4, !tbaa !95
  %13 = sext i32 %12 to i64
  %14 = getelementptr inbounds nuw %"class.cv::Mat", ptr %9, i32 0, i32 11
  %15 = getelementptr inbounds nuw %"struct.cv::MatStep", ptr %14, i32 0, i32 0
  %16 = load ptr, ptr %15, align 8, !tbaa !138
  %17 = getelementptr inbounds i64, ptr %16, i64 0
  %18 = load i64, ptr %17, align 8, !tbaa !52
  %19 = mul i64 %13, %18
  %20 = getelementptr inbounds nuw i8, ptr %11, i64 %19
  %21 = load i32, ptr %7, align 4, !tbaa !95
  %22 = sext i32 %21 to i64
  %23 = getelementptr inbounds nuw %"class.cv::Mat", ptr %9, i32 0, i32 11
  %24 = getelementptr inbounds nuw %"struct.cv::MatStep", ptr %23, i32 0, i32 0
  %25 = load ptr, ptr %24, align 8, !tbaa !138
  %26 = getelementptr inbounds i64, ptr %25, i64 1
  %27 = load i64, ptr %26, align 8, !tbaa !52
  %28 = mul i64 %22, %27
  %29 = getelementptr inbounds nuw i8, ptr %20, i64 %28
  %30 = load i32, ptr %8, align 4, !tbaa !95
  %31 = sext i32 %30 to i64
  %32 = getelementptr inbounds nuw %"class.cv::Mat", ptr %9, i32 0, i32 11
  %33 = getelementptr inbounds nuw %"struct.cv::MatStep", ptr %32, i32 0, i32 0
  %34 = load ptr, ptr %33, align 8, !tbaa !138
  %35 = getelementptr inbounds i64, ptr %34, i64 2
  %36 = load i64, ptr %35, align 8, !tbaa !52
  %37 = mul i64 %31, %36
  %38 = getelementptr inbounds nuw i8, ptr %29, i64 %37
  ret ptr %38
}

; Function Attrs: mustprogress nounwind uwtable
define linkonce_odr hidden noundef nonnull align 8 dereferenceable(8) ptr @_ZNSt6vectorIdSaIdEEixEm(ptr noundef nonnull align 8 dereferenceable(24) %0, i64 noundef %1) #5 comdat align 2 {
  %3 = alloca ptr, align 8
  %4 = alloca i64, align 8
  store ptr %0, ptr %3, align 8, !tbaa !73
  store i64 %1, ptr %4, align 8, !tbaa !52
  %5 = load ptr, ptr %3, align 8
  %6 = getelementptr inbounds nuw %"struct.std::_Vector_base.16", ptr %5, i32 0, i32 0
  %7 = getelementptr inbounds nuw %"struct.std::_Vector_base<double, std::allocator<double>>::_Vector_impl_data", ptr %6, i32 0, i32 0
  %8 = load ptr, ptr %7, align 8, !tbaa !74
  %9 = load i64, ptr %4, align 8, !tbaa !52
  %10 = getelementptr inbounds nuw double, ptr %8, i64 %9
  ret ptr %10
}

; Function Attrs: mustprogress nounwind uwtable
define linkonce_odr hidden noundef nonnull align 8 dereferenceable(24) ptr @_ZNSt6vectorIS_IdSaIdEESaIS1_EEixEm(ptr noundef nonnull align 8 dereferenceable(24) %0, i64 noundef %1) #5 comdat align 2 {
  %3 = alloca ptr, align 8
  %4 = alloca i64, align 8
  store ptr %0, ptr %3, align 8, !tbaa !66
  store i64 %1, ptr %4, align 8, !tbaa !52
  %5 = load ptr, ptr %3, align 8
  %6 = getelementptr inbounds nuw %"struct.std::_Vector_base.1", ptr %5, i32 0, i32 0
  %7 = getelementptr inbounds nuw %"struct.std::_Vector_base<std::vector<double>, std::allocator<std::vector<double>>>::_Vector_impl_data", ptr %6, i32 0, i32 0
  %8 = load ptr, ptr %7, align 8, !tbaa !72
  %9 = load i64, ptr %4, align 8, !tbaa !52
  %10 = getelementptr inbounds nuw %"class.std::vector.15", ptr %8, i64 %9
  ret ptr %10
}

; Function Attrs: inlinehint mustprogress uwtable
define linkonce_odr hidden noundef nonnull align 4 dereferenceable(4) ptr @_ZN2cv3Mat2atIfEERT_iii(ptr noundef nonnull align 8 dereferenceable(96) %0, i32 noundef %1, i32 noundef %2, i32 noundef %3) #8 comdat align 2 {
  %5 = alloca ptr, align 8
  %6 = alloca i32, align 4
  %7 = alloca i32, align 4
  %8 = alloca i32, align 4
  store ptr %0, ptr %5, align 8, !tbaa !8
  store i32 %1, ptr %6, align 4, !tbaa !95
  store i32 %2, ptr %7, align 4, !tbaa !95
  store i32 %3, ptr %8, align 4, !tbaa !95
  %9 = load ptr, ptr %5, align 8
  %10 = load i32, ptr %6, align 4, !tbaa !95
  %11 = load i32, ptr %7, align 4, !tbaa !95
  %12 = load i32, ptr %8, align 4, !tbaa !95
  %13 = call noundef ptr @_ZN2cv3Mat3ptrEiii(ptr noundef nonnull align 8 dereferenceable(96) %9, i32 noundef %10, i32 noundef %11, i32 noundef %12)
  ret ptr %13
}

; Function Attrs: mustprogress uwtable
define void @_ZN2cv13dnn_objdetect9InferBbox16transform_bboxesEPSt6vectorIS2_IdSaIdEESaIS4_EE(ptr noundef nonnull align 8 dereferenceable(472) %0, ptr noundef %1) #4 align 2 {
  %3 = alloca ptr, align 8
  %4 = alloca ptr, align 8
  %5 = alloca i32, align 4
  %6 = alloca i32, align 4
  %7 = alloca i32, align 4
  %8 = alloca i32, align 4
  %9 = alloca i32, align 4
  %10 = alloca double, align 8
  %11 = alloca double, align 8
  %12 = alloca double, align 8
  %13 = alloca double, align 8
  store ptr %0, ptr %3, align 8, !tbaa !3
  store ptr %1, ptr %4, align 8, !tbaa !66
  %14 = load ptr, ptr %3, align 8
  call void @llvm.lifetime.start.p0(i64 4, ptr %5) #3
  store i32 0, ptr %5, align 4, !tbaa !95
  br label %15

15:                                               ; preds = %157, %2
  %16 = load i32, ptr %5, align 4, !tbaa !95
  %17 = getelementptr inbounds nuw %"class.cv::dnn_objdetect::InferBbox", ptr %14, i32 0, i32 7
  %18 = load i32, ptr %17, align 4, !tbaa !44
  %19 = icmp ult i32 %16, %18
  br i1 %19, label %21, label %20

20:                                               ; preds = %15
  store i32 2, ptr %6, align 4
  call void @llvm.lifetime.end.p0(i64 4, ptr %5) #3
  br label %160

21:                                               ; preds = %15
  call void @llvm.lifetime.start.p0(i64 4, ptr %7) #3
  store i32 0, ptr %7, align 4, !tbaa !95
  br label %22

22:                                               ; preds = %153, %21
  %23 = load i32, ptr %7, align 4, !tbaa !95
  %24 = getelementptr inbounds nuw %"class.cv::dnn_objdetect::InferBbox", ptr %14, i32 0, i32 6
  %25 = load i32, ptr %24, align 8, !tbaa !43
  %26 = icmp ult i32 %23, %25
  br i1 %26, label %28, label %27

27:                                               ; preds = %22
  store i32 5, ptr %6, align 4
  call void @llvm.lifetime.end.p0(i64 4, ptr %7) #3
  br label %156

28:                                               ; preds = %22
  call void @llvm.lifetime.start.p0(i64 4, ptr %8) #3
  store i32 0, ptr %8, align 4, !tbaa !95
  br label %29

29:                                               ; preds = %149, %28
  %30 = load i32, ptr %8, align 4, !tbaa !95
  %31 = getelementptr inbounds nuw %"class.cv::dnn_objdetect::InferBbox", ptr %14, i32 0, i32 13
  %32 = load i32, ptr %31, align 4, !tbaa !46
  %33 = icmp ult i32 %30, %32
  br i1 %33, label %35, label %34

34:                                               ; preds = %29
  store i32 8, ptr %6, align 4
  call void @llvm.lifetime.end.p0(i64 4, ptr %8) #3
  br label %152

35:                                               ; preds = %29
  call void @llvm.lifetime.start.p0(i64 4, ptr %9) #3
  %36 = load i32, ptr %5, align 4, !tbaa !95
  %37 = getelementptr inbounds nuw %"class.cv::dnn_objdetect::InferBbox", ptr %14, i32 0, i32 6
  %38 = load i32, ptr %37, align 8, !tbaa !43
  %39 = mul i32 %36, %38
  %40 = load i32, ptr %7, align 4, !tbaa !95
  %41 = add i32 %39, %40
  %42 = getelementptr inbounds nuw %"class.cv::dnn_objdetect::InferBbox", ptr %14, i32 0, i32 13
  %43 = load i32, ptr %42, align 4, !tbaa !46
  %44 = mul i32 %41, %43
  %45 = load i32, ptr %8, align 4, !tbaa !95
  %46 = add i32 %44, %45
  store i32 %46, ptr %9, align 4, !tbaa !95
  call void @llvm.lifetime.start.p0(i64 8, ptr %10) #3
  %47 = getelementptr inbounds nuw %"class.cv::dnn_objdetect::InferBbox", ptr %14, i32 0, i32 1
  %48 = load i32, ptr %5, align 4, !tbaa !95
  %49 = load i32, ptr %7, align 4, !tbaa !95
  %50 = load i32, ptr %8, align 4, !tbaa !95
  %51 = mul i32 %50, 4
  %52 = add i32 %51, 0
  %53 = call noundef nonnull align 4 dereferenceable(4) ptr @_ZN2cv3Mat2atIfEERT_iii(ptr noundef nonnull align 8 dereferenceable(96) %47, i32 noundef %48, i32 noundef %49, i32 noundef %52)
  %54 = load float, ptr %53, align 4, !tbaa !96
  %55 = fpext float %54 to double
  store double %55, ptr %10, align 8, !tbaa !56
  call void @llvm.lifetime.start.p0(i64 8, ptr %11) #3
  %56 = getelementptr inbounds nuw %"class.cv::dnn_objdetect::InferBbox", ptr %14, i32 0, i32 1
  %57 = load i32, ptr %5, align 4, !tbaa !95
  %58 = load i32, ptr %7, align 4, !tbaa !95
  %59 = load i32, ptr %8, align 4, !tbaa !95
  %60 = mul i32 %59, 4
  %61 = add i32 %60, 1
  %62 = call noundef nonnull align 4 dereferenceable(4) ptr @_ZN2cv3Mat2atIfEERT_iii(ptr noundef nonnull align 8 dereferenceable(96) %56, i32 noundef %57, i32 noundef %58, i32 noundef %61)
  %63 = load float, ptr %62, align 4, !tbaa !96
  %64 = fpext float %63 to double
  store double %64, ptr %11, align 8, !tbaa !56
  call void @llvm.lifetime.start.p0(i64 8, ptr %12) #3
  %65 = getelementptr inbounds nuw %"class.cv::dnn_objdetect::InferBbox", ptr %14, i32 0, i32 1
  %66 = load i32, ptr %5, align 4, !tbaa !95
  %67 = load i32, ptr %7, align 4, !tbaa !95
  %68 = load i32, ptr %8, align 4, !tbaa !95
  %69 = mul i32 %68, 4
  %70 = add i32 %69, 2
  %71 = call noundef nonnull align 4 dereferenceable(4) ptr @_ZN2cv3Mat2atIfEERT_iii(ptr noundef nonnull align 8 dereferenceable(96) %65, i32 noundef %66, i32 noundef %67, i32 noundef %70)
  %72 = load float, ptr %71, align 4, !tbaa !96
  %73 = fpext float %72 to double
  store double %73, ptr %12, align 8, !tbaa !56
  call void @llvm.lifetime.start.p0(i64 8, ptr %13) #3
  %74 = getelementptr inbounds nuw %"class.cv::dnn_objdetect::InferBbox", ptr %14, i32 0, i32 1
  %75 = load i32, ptr %5, align 4, !tbaa !95
  %76 = load i32, ptr %7, align 4, !tbaa !95
  %77 = load i32, ptr %8, align 4, !tbaa !95
  %78 = mul i32 %77, 4
  %79 = add i32 %78, 3
  %80 = call noundef nonnull align 4 dereferenceable(4) ptr @_ZN2cv3Mat2atIfEERT_iii(ptr noundef nonnull align 8 dereferenceable(96) %74, i32 noundef %75, i32 noundef %76, i32 noundef %79)
  %81 = load float, ptr %80, align 4, !tbaa !96
  %82 = fpext float %81 to double
  store double %82, ptr %13, align 8, !tbaa !56
  %83 = getelementptr inbounds nuw %"class.cv::dnn_objdetect::InferBbox", ptr %14, i32 0, i32 8
  %84 = load i32, ptr %9, align 4, !tbaa !95
  %85 = sext i32 %84 to i64
  %86 = call noundef nonnull align 8 dereferenceable(24) ptr @_ZNSt6vectorIS_IdSaIdEESaIS1_EEixEm(ptr noundef nonnull align 8 dereferenceable(24) %83, i64 noundef %85) #3
  %87 = call noundef nonnull align 8 dereferenceable(8) ptr @_ZNSt6vectorIdSaIdEEixEm(ptr noundef nonnull align 8 dereferenceable(24) %86, i64 noundef 0) #3
  %88 = load double, ptr %87, align 8, !tbaa !56
  %89 = getelementptr inbounds nuw %"class.cv::dnn_objdetect::InferBbox", ptr %14, i32 0, i32 8
  %90 = load i32, ptr %9, align 4, !tbaa !95
  %91 = sext i32 %90 to i64
  %92 = call noundef nonnull align 8 dereferenceable(24) ptr @_ZNSt6vectorIS_IdSaIdEESaIS1_EEixEm(ptr noundef nonnull align 8 dereferenceable(24) %89, i64 noundef %91) #3
  %93 = call noundef nonnull align 8 dereferenceable(8) ptr @_ZNSt6vectorIdSaIdEEixEm(ptr noundef nonnull align 8 dereferenceable(24) %92, i64 noundef 3) #3
  %94 = load double, ptr %93, align 8, !tbaa !56
  %95 = load double, ptr %10, align 8, !tbaa !56
  %96 = call double @llvm.fmuladd.f64(double %94, double %95, double %88)
  %97 = load ptr, ptr %4, align 8, !tbaa !66
  %98 = load i32, ptr %9, align 4, !tbaa !95
  %99 = sext i32 %98 to i64
  %100 = call noundef nonnull align 8 dereferenceable(24) ptr @_ZNSt6vectorIS_IdSaIdEESaIS1_EEixEm(ptr noundef nonnull align 8 dereferenceable(24) %97, i64 noundef %99) #3
  %101 = call noundef nonnull align 8 dereferenceable(8) ptr @_ZNSt6vectorIdSaIdEEixEm(ptr noundef nonnull align 8 dereferenceable(24) %100, i64 noundef 0) #3
  store double %96, ptr %101, align 8, !tbaa !56
  %102 = getelementptr inbounds nuw %"class.cv::dnn_objdetect::InferBbox", ptr %14, i32 0, i32 8
  %103 = load i32, ptr %9, align 4, !tbaa !95
  %104 = sext i32 %103 to i64
  %105 = call noundef nonnull align 8 dereferenceable(24) ptr @_ZNSt6vectorIS_IdSaIdEESaIS1_EEixEm(ptr noundef nonnull align 8 dereferenceable(24) %102, i64 noundef %104) #3
  %106 = call noundef nonnull align 8 dereferenceable(8) ptr @_ZNSt6vectorIdSaIdEEixEm(ptr noundef nonnull align 8 dereferenceable(24) %105, i64 noundef 1) #3
  %107 = load double, ptr %106, align 8, !tbaa !56
  %108 = getelementptr inbounds nuw %"class.cv::dnn_objdetect::InferBbox", ptr %14, i32 0, i32 8
  %109 = load i32, ptr %9, align 4, !tbaa !95
  %110 = sext i32 %109 to i64
  %111 = call noundef nonnull align 8 dereferenceable(24) ptr @_ZNSt6vectorIS_IdSaIdEESaIS1_EEixEm(ptr noundef nonnull align 8 dereferenceable(24) %108, i64 noundef %110) #3
  %112 = call noundef nonnull align 8 dereferenceable(8) ptr @_ZNSt6vectorIdSaIdEEixEm(ptr noundef nonnull align 8 dereferenceable(24) %111, i64 noundef 2) #3
  %113 = load double, ptr %112, align 8, !tbaa !56
  %114 = load double, ptr %11, align 8, !tbaa !56
  %115 = call double @llvm.fmuladd.f64(double %113, double %114, double %107)
  %116 = load ptr, ptr %4, align 8, !tbaa !66
  %117 = load i32, ptr %9, align 4, !tbaa !95
  %118 = sext i32 %117 to i64
  %119 = call noundef nonnull align 8 dereferenceable(24) ptr @_ZNSt6vectorIS_IdSaIdEESaIS1_EEixEm(ptr noundef nonnull align 8 dereferenceable(24) %116, i64 noundef %118) #3
  %120 = call noundef nonnull align 8 dereferenceable(8) ptr @_ZNSt6vectorIdSaIdEEixEm(ptr noundef nonnull align 8 dereferenceable(24) %119, i64 noundef 1) #3
  store double %115, ptr %120, align 8, !tbaa !56
  %121 = getelementptr inbounds nuw %"class.cv::dnn_objdetect::InferBbox", ptr %14, i32 0, i32 8
  %122 = load i32, ptr %9, align 4, !tbaa !95
  %123 = sext i32 %122 to i64
  %124 = call noundef nonnull align 8 dereferenceable(24) ptr @_ZNSt6vectorIS_IdSaIdEESaIS1_EEixEm(ptr noundef nonnull align 8 dereferenceable(24) %121, i64 noundef %123) #3
  %125 = call noundef nonnull align 8 dereferenceable(8) ptr @_ZNSt6vectorIdSaIdEEixEm(ptr noundef nonnull align 8 dereferenceable(24) %124, i64 noundef 2) #3
  %126 = load double, ptr %125, align 8, !tbaa !56
  %127 = load double, ptr %12, align 8, !tbaa !56
  %128 = call double @exp(double noundef %127) #3, !tbaa !95
  %129 = fmul double %126, %128
  %130 = load ptr, ptr %4, align 8, !tbaa !66
  %131 = load i32, ptr %9, align 4, !tbaa !95
  %132 = sext i32 %131 to i64
  %133 = call noundef nonnull align 8 dereferenceable(24) ptr @_ZNSt6vectorIS_IdSaIdEESaIS1_EEixEm(ptr noundef nonnull align 8 dereferenceable(24) %130, i64 noundef %132) #3
  %134 = call noundef nonnull align 8 dereferenceable(8) ptr @_ZNSt6vectorIdSaIdEEixEm(ptr noundef nonnull align 8 dereferenceable(24) %133, i64 noundef 2) #3
  store double %129, ptr %134, align 8, !tbaa !56
  %135 = getelementptr inbounds nuw %"class.cv::dnn_objdetect::InferBbox", ptr %14, i32 0, i32 8
  %136 = load i32, ptr %9, align 4, !tbaa !95
  %137 = sext i32 %136 to i64
  %138 = call noundef nonnull align 8 dereferenceable(24) ptr @_ZNSt6vectorIS_IdSaIdEESaIS1_EEixEm(ptr noundef nonnull align 8 dereferenceable(24) %135, i64 noundef %137) #3
  %139 = call noundef nonnull align 8 dereferenceable(8) ptr @_ZNSt6vectorIdSaIdEEixEm(ptr noundef nonnull align 8 dereferenceable(24) %138, i64 noundef 3) #3
  %140 = load double, ptr %139, align 8, !tbaa !56
  %141 = load double, ptr %13, align 8, !tbaa !56
  %142 = call double @exp(double noundef %141) #3, !tbaa !95
  %143 = fmul double %140, %142
  %144 = load ptr, ptr %4, align 8, !tbaa !66
  %145 = load i32, ptr %9, align 4, !tbaa !95
  %146 = sext i32 %145 to i64
  %147 = call noundef nonnull align 8 dereferenceable(24) ptr @_ZNSt6vectorIS_IdSaIdEESaIS1_EEixEm(ptr noundef nonnull align 8 dereferenceable(24) %144, i64 noundef %146) #3
  %148 = call noundef nonnull align 8 dereferenceable(8) ptr @_ZNSt6vectorIdSaIdEEixEm(ptr noundef nonnull align 8 dereferenceable(24) %147, i64 noundef 3) #3
  store double %143, ptr %148, align 8, !tbaa !56
  call void @llvm.lifetime.end.p0(i64 8, ptr %13) #3
  call void @llvm.lifetime.end.p0(i64 8, ptr %12) #3
  call void @llvm.lifetime.end.p0(i64 8, ptr %11) #3
  call void @llvm.lifetime.end.p0(i64 8, ptr %10) #3
  call void @llvm.lifetime.end.p0(i64 4, ptr %9) #3
  br label %149

149:                                              ; preds = %35
  %150 = load i32, ptr %8, align 4, !tbaa !95
  %151 = add i32 %150, 1
  store i32 %151, ptr %8, align 4, !tbaa !95
  br label %29, !llvm.loop !98

152:                                              ; preds = %34
  br label %153

153:                                              ; preds = %152
  %154 = load i32, ptr %7, align 4, !tbaa !95
  %155 = add i32 %154, 1
  store i32 %155, ptr %7, align 4, !tbaa !95
  br label %22, !llvm.loop !99

156:                                              ; preds = %27
  br label %157

157:                                              ; preds = %156
  %158 = load i32, ptr %5, align 4, !tbaa !95
  %159 = add i32 %158, 1
  store i32 %159, ptr %5, align 4, !tbaa !95
  br label %15, !llvm.loop !100

160:                                              ; preds = %20
  ret void
}