; Function Attrs: mustprogress nofree nounwind memory(readwrite, inaccessiblemem: write) uwtable
define void @_ZN2cv13dnn_objdetect9InferBbox16transform_bboxesEPSt6vectorIS2_IdSaIdEESaIS4_EE(ptr noundef nonnull readonly align 8 captures(none) dereferenceable(472) %0, ptr noundef readonly captures(none) %1) local_unnamed_addr #7 align 2 {
  %3 = getelementptr inbounds nuw i8, ptr %0, i64 324
  %4 = load i32, ptr %3, align 4, !tbaa !40
  %.not = icmp eq i32 %4, 0
  br i1 %.not, label %._crit_edge48, label %.preheader42.lr.ph

.preheader42.lr.ph:                               ; preds = %2
  %5 = getelementptr inbounds nuw i8, ptr %0, i64 320
  %6 = getelementptr inbounds nuw i8, ptr %0, i64 428
  %7 = getelementptr inbounds nuw i8, ptr %0, i64 40
  %8 = getelementptr inbounds nuw i8, ptr %0, i64 96
  %9 = getelementptr inbounds nuw i8, ptr %0, i64 328
  %10 = load i32, ptr %5, align 8, !tbaa !39
  %.not49 = icmp eq i32 %10, 0
  br i1 %.not49, label %._crit_edge48, label %.preheader42

.preheader42:                                     ; preds = %.preheader42.lr.ph, %._crit_edge45
  %11 = phi i32 [ %32, %._crit_edge45 ], [ %4, %.preheader42.lr.ph ]
  %12 = phi i32 [ %33, %._crit_edge45 ], [ %10, %.preheader42.lr.ph ]
  %13 = phi i32 [ %34, %._crit_edge45 ], [ %10, %.preheader42.lr.ph ]
  %.046 = phi i32 [ %35, %._crit_edge45 ], [ 0, %.preheader42.lr.ph ]
  %.not50 = icmp eq i32 %13, 0
  br i1 %.not50, label %._crit_edge45, label %.preheader.lr.ph

.preheader.lr.ph:                                 ; preds = %.preheader42
  %14 = load ptr, ptr %7, align 8
  %15 = sext i32 %.046 to i64
  %16 = load ptr, ptr %8, align 8
  %17 = getelementptr inbounds nuw i8, ptr %16, i64 8
  %18 = getelementptr inbounds nuw i8, ptr %16, i64 16
  %19 = load ptr, ptr %9, align 8
  %20 = load i32, ptr %6, align 4, !tbaa !42
  %.not51 = icmp eq i32 %20, 0
  br i1 %.not51, label %._crit_edge45, label %.preheader

._crit_edge48:                                    ; preds = %._crit_edge45, %.preheader42.lr.ph, %2
  ret void

.preheader:                                       ; preds = %.preheader.lr.ph, %._crit_edge
  %21 = phi i32 [ %37, %._crit_edge ], [ %12, %.preheader.lr.ph ]
  %22 = phi i32 [ %38, %._crit_edge ], [ %20, %.preheader.lr.ph ]
  %.03944 = phi i32 [ %39, %._crit_edge ], [ 0, %.preheader.lr.ph ]
  %.not52 = icmp eq i32 %22, 0
  br i1 %.not52, label %._crit_edge, label %.lr.ph

.lr.ph:                                           ; preds = %.preheader
  %23 = load i64, ptr %16, align 8, !tbaa !85
  %24 = mul i64 %23, %15
  %25 = getelementptr inbounds nuw i8, ptr %14, i64 %24
  %26 = sext i32 %.03944 to i64
  %27 = load i64, ptr %17, align 8, !tbaa !85
  %28 = mul i64 %27, %26
  %29 = getelementptr inbounds nuw i8, ptr %25, i64 %28
  %30 = load i64, ptr %18, align 8, !tbaa !85
  %31 = load ptr, ptr %1, align 8, !tbaa !49
  br label %41

._crit_edge45.loopexit53:                         ; preds = %._crit_edge
  %.pre55 = load i32, ptr %3, align 4, !tbaa !40
  br label %._crit_edge45

._crit_edge45:                                    ; preds = %.preheader.lr.ph, %._crit_edge45.loopexit53, %.preheader42
  %32 = phi i32 [ %.pre55, %._crit_edge45.loopexit53 ], [ %11, %.preheader42 ], [ %11, %.preheader.lr.ph ]
  %33 = phi i32 [ %37, %._crit_edge45.loopexit53 ], [ %12, %.preheader42 ], [ %12, %.preheader.lr.ph ]
  %34 = phi i32 [ %37, %._crit_edge45.loopexit53 ], [ 0, %.preheader42 ], [ %13, %.preheader.lr.ph ]
  %35 = add nuw i32 %.046, 1
  %36 = icmp ult i32 %35, %32
  br i1 %36, label %.preheader42, label %._crit_edge48, !llvm.loop !107

._crit_edge.loopexit:                             ; preds = %41
  %.pre = load i32, ptr %5, align 8, !tbaa !39
  br label %._crit_edge

._crit_edge:                                      ; preds = %._crit_edge.loopexit, %.preheader
  %37 = phi i32 [ %.pre, %._crit_edge.loopexit ], [ %21, %.preheader ]
  %38 = phi i32 [ %96, %._crit_edge.loopexit ], [ 0, %.preheader ]
  %39 = add nuw i32 %.03944, 1
  %40 = icmp ult i32 %39, %37
  br i1 %40, label %.preheader, label %._crit_edge45.loopexit53, !llvm.loop !109

41:                                               ; preds = %.lr.ph, %41
  %42 = phi i32 [ %22, %.lr.ph ], [ %96, %41 ]
  %.04043 = phi i32 [ 0, %.lr.ph ], [ %95, %41 ]
  %43 = load i32, ptr %5, align 8, !tbaa !39
  %44 = mul i32 %43, %.046
  %45 = add i32 %44, %.03944
  %46 = mul i32 %45, %42
  %47 = add i32 %46, %.04043
  %48 = shl i32 %.04043, 2
  %49 = sext i32 %48 to i64
  %50 = mul i64 %30, %49
  %51 = getelementptr inbounds nuw i8, ptr %29, i64 %50
  %52 = load float, ptr %51, align 4, !tbaa !96
  %53 = fpext float %52 to double
  %54 = or disjoint i32 %48, 1
  %55 = sext i32 %54 to i64
  %56 = mul i64 %30, %55
  %57 = getelementptr inbounds nuw i8, ptr %29, i64 %56
  %58 = load float, ptr %57, align 4, !tbaa !96
  %59 = fpext float %58 to double
  %60 = or disjoint i32 %48, 2
  %61 = sext i32 %60 to i64
  %62 = mul i64 %30, %61
  %63 = getelementptr inbounds nuw i8, ptr %29, i64 %62
  %64 = load float, ptr %63, align 4, !tbaa !96
  %65 = fpext float %64 to double
  %66 = or disjoint i32 %48, 3
  %67 = sext i32 %66 to i64
  %68 = mul i64 %30, %67
  %69 = getelementptr inbounds nuw i8, ptr %29, i64 %68
  %70 = load float, ptr %69, align 4, !tbaa !96
  %71 = fpext float %70 to double
  %72 = sext i32 %47 to i64
  %73 = getelementptr inbounds nuw %"class.std::vector.15", ptr %19, i64 %72
  %74 = load ptr, ptr %73, align 8, !tbaa !50
  %75 = load double, ptr %74, align 8, !tbaa !58
  %76 = getelementptr inbounds nuw i8, ptr %74, i64 24
  %77 = load double, ptr %76, align 8, !tbaa !58
  %78 = tail call double @llvm.fmuladd.f64(double %77, double %53, double %75)
  %79 = getelementptr inbounds nuw %"class.std::vector.15", ptr %31, i64 %72
  %80 = load ptr, ptr %79, align 8, !tbaa !50
  store double %78, ptr %80, align 8, !tbaa !58
  %81 = getelementptr inbounds nuw i8, ptr %74, i64 8
  %82 = load double, ptr %81, align 8, !tbaa !58
  %83 = getelementptr inbounds nuw i8, ptr %74, i64 16
  %84 = load double, ptr %83, align 8, !tbaa !58
  %85 = tail call double @llvm.fmuladd.f64(double %84, double %59, double %82)
  %86 = getelementptr inbounds nuw i8, ptr %80, i64 8
  store double %85, ptr %86, align 8, !tbaa !58
  %87 = load double, ptr %83, align 8, !tbaa !58
  %88 = tail call double @exp(double noundef %65) #22, !tbaa !110
  %89 = fmul double %87, %88
  %90 = getelementptr inbounds nuw i8, ptr %80, i64 16
  store double %89, ptr %90, align 8, !tbaa !58
  %91 = load double, ptr %76, align 8, !tbaa !58
  %92 = tail call double @exp(double noundef %71) #22, !tbaa !110
  %93 = fmul double %91, %92
  %94 = getelementptr inbounds nuw i8, ptr %80, i64 24
  store double %93, ptr %94, align 8, !tbaa !58
  %95 = add nuw i32 %.04043, 1
  %96 = load i32, ptr %6, align 4, !tbaa !42
  %97 = icmp ult i32 %95, %96
  br i1 %97, label %41, label %._crit_edge.loopexit, !llvm.loop !111
}